target datalayout = "e-m:e-p270:32:32-p271:32:32-p272:64:64-i64:64-i128:128-f80:128-n8:16:32:64-S128"
target triple = "x86_64-pc-linux-gnu"

%struct.darktable_t = type { %struct.dt_codepath_t, i32, i32, ptr, ptr, ptr, ptr, ptr, ptr, ptr, ptr, ptr, ptr, ptr, ptr, ptr, ptr, ptr, ptr, ptr, ptr, ptr, ptr, ptr, ptr, ptr, ptr, ptr, ptr, ptr, [64 x %struct.dt_pthread_mutex_t], %struct.dt_pthread_mutex_t, %struct.dt_pthread_mutex_t, %struct.dt_pthread_mutex_t, %struct.dt_pthread_mutex_t, %struct.dt_pthread_mutex_t, ptr, ptr, ptr, ptr, ptr, ptr, ptr, ptr, ptr, ptr, ptr, ptr, ptr, %struct.dt_lua_state_t, ptr, double, ptr, i32, [47 x i32], i32, i32, ptr, ptr, %struct.dt_sys_resources_t, %struct.dt_backthumb_t, %struct.dt_gimp_t }
%struct.dt_codepath_t = type { i8, [3 x i8] }
%struct.dt_pthread_mutex_t = type { %union.pthread_mutex_t }
%union.pthread_mutex_t = type { %struct.__pthread_mutex_s }
%struct.__pthread_mutex_s = type { i32, i32, i32, i32, i32, i16, i16, %struct.__pthread_internal_list }
%struct.__pthread_internal_list = type { ptr, ptr }
%struct.dt_lua_state_t = type { i32 }
%struct.dt_sys_resources_t = type { i64, i64, ptr, ptr, i32 }
%struct.dt_backthumb_t = type { double, double, i32, i32, i32, i32 }
%struct.dt_gimp_t = type { i32, ptr, ptr, i32, i32 }
%struct.dt_iop_module_t = type { i32, ptr, ptr, ptr, ptr, ptr, ptr, ptr, ptr, ptr, ptr, ptr, ptr, ptr, ptr, ptr, ptr, ptr, ptr, ptr, ptr, ptr, ptr, ptr, ptr, ptr, ptr, ptr, ptr, ptr, ptr, ptr, ptr, ptr, ptr, ptr, ptr, ptr, ptr, ptr, ptr, ptr, ptr, ptr, ptr, ptr, ptr, ptr, ptr, ptr, ptr, ptr, ptr, ptr, ptr, ptr, ptr, [20 x i8], i32, i32, i32, i32, i32, i32, i32, [8 x i8], [4 x float], [4 x float], [4 x float], [4 x float], [4 x float], [4 x float], ptr, %struct.dt_dev_histogram_stats_t, [4 x i32], i32, i32, ptr, i32, i32, ptr, ptr, i32, ptr, %struct.dt_pthread_mutex_t, ptr, ptr, ptr, ptr, %struct.anon.4, ptr, ptr, ptr, ptr, ptr, ptr, ptr, i32, ptr, ptr, ptr, ptr, ptr, ptr, ptr, i32, ptr, i32, [128 x i8], i32, ptr, ptr, i32, [12 x i8] }
%struct.dt_dev_histogram_stats_t = type { i32, i64, i32, i32 }
%struct.anon.4 = type { %struct.anon.5, %struct.anon.6 }
%struct.anon.5 = type { ptr, ptr }
%struct.anon.6 = type { ptr, i32 }

@darktable = external global %struct.darktable_t, align 8
@.str.43 = private unnamed_addr constant [115 x i8] c"generated/home/dtcxzyw/WorkSpace/Projects/compilers/llvm-opt-benchmark/bench/darktable/darktable/src/gui/presets.c\00", align 1
@stderr = external global ptr, align 8
@.str.45 = private unnamed_addr constant [53 x i8] c"sqlite3 error: %s:%d, function %s(), query \22%s\22: %s\0A\00", align 1
@.str.46 = private unnamed_addr constant [41 x i8] c"[sql] %s:%d, function %s(): prepare \22%s\22\00", align 1
@.str.48 = private unnamed_addr constant [41 x i8] c"sqlite3 error: %s:%d, function %s(): %s\0A\00", align 1
@.str.94 = private unnamed_addr constant [15 x i8] c"dt-preset-name\00", align 1
@.str.180 = private unnamed_addr constant [51 x i8] c"plugins/lighttable/preset/ask_before_delete_preset\00", align 1
@.str.181 = private unnamed_addr constant [15 x i8] c"update preset?\00", align 1
@.str.182 = private unnamed_addr constant [46 x i8] c"do you really want to update the preset `%s'?\00", align 1
@__FUNCTION__._menuitem_update_preset = private unnamed_addr constant [24 x i8] c"_menuitem_update_preset\00", align 1
@.str.183 = private unnamed_addr constant [139 x i8] c"UPDATE data.presets SET op_version=?2, op_params=?3, enabled=?4,      blendop_params=?5, blendop_version=?6 WHERE name=?7 AND operation=?1\00", align 1

; Function Attrs: nounwind uwtable
define internal void @_menuitem_update_preset(ptr noundef %0, ptr noundef %1) #0 {
  %3 = alloca ptr, align 8
  %4 = alloca ptr, align 8
  %5 = alloca ptr, align 8
  %6 = alloca ptr, align 8
  %7 = alloca i32, align 4
  %8 = alloca i32, align 4
  %9 = alloca i32, align 4
  %10 = alloca i32, align 4
  %11 = alloca i32, align 4
  %12 = alloca i32, align 4
  %13 = alloca i32, align 4
  %14 = alloca i32, align 4
  store ptr %0, ptr %3, align 8, !tbaa !191
  store ptr %1, ptr %4, align 8, !tbaa !83
  call void @llvm.lifetime.start.p0(i64 8, ptr %5) #11
  %15 = load ptr, ptr %3, align 8, !tbaa !191
  %16 = call ptr @g_type_check_instance_cast(ptr noundef %15, i64 noundef 80)
  %17 = call ptr @g_object_get_data(ptr noundef %16, ptr noundef @.str.94)
  store ptr %17, ptr %5, align 8, !tbaa !11
  %18 = call i32 @dt_conf_get_bool(ptr noundef @.str.180)
  %19 = icmp ne i32 %18, 0
  br i1 %19, label %20, label %26

20:                                               ; preds = %2
  %21 = call ptr @dcgettext(ptr noundef null, ptr noundef @.str.181, i32 noundef 5) #11
  %22 = call ptr @dcgettext(ptr noundef null, ptr noundef @.str.182, i32 noundef 5) #11
  %23 = load ptr, ptr %5, align 8, !tbaa !11
  %24 = call i32 (ptr, ptr, ...) @dt_gui_show_yes_no_dialog(ptr noundef %21, ptr noundef %22, ptr noundef %23)
  %25 = icmp ne i32 %24, 0
  br i1 %25, label %26, label %157

26:                                               ; preds = %20, %2
  call void @llvm.lifetime.start.p0(i64 8, ptr %6) #11
  br label %27

27:                                               ; preds = %26
  br label %28

28:                                               ; preds = %27
  %29 = load i32, ptr getelementptr inbounds nuw (%struct.darktable_t, ptr @darktable, i32 0, i32 2), align 8, !tbaa !23
  %30 = and i32 256, %29
  %31 = icmp ne i32 %30, 0
  br i1 %31, label %32, label %38

32:                                               ; preds = %28
  %33 = load i32, ptr getelementptr inbounds nuw (%struct.darktable_t, ptr @darktable, i32 0, i32 2), align 8, !tbaa !23
  %34 = xor i32 %33, -1
  %35 = and i32 0, %34
  %36 = icmp ne i32 %35, 0
  br i1 %36, label %38, label %37

37:                                               ; preds = %32
  call void (ptr, ...) @dt_print_ext(ptr noundef @.str.46, ptr noundef @.str.43, i32 noundef 1013, ptr noundef @__FUNCTION__._menuitem_update_preset, ptr noundef @.str.183)
  br label %38

38:                                               ; preds = %37, %32, %28
  br label %39

39:                                               ; preds = %38
  br label %40

40:                                               ; preds = %39
  call void @llvm.lifetime.start.p0(i64 4, ptr %7) #11
  %41 = load ptr, ptr getelementptr inbounds nuw (%struct.darktable_t, ptr @darktable, i32 0, i32 18), align 8, !tbaa !59
  %42 = call ptr @dt_database_get(ptr noundef %41)
  %43 = call i32 @sqlite3_prepare_v2(ptr noundef %42, ptr noundef @.str.183, i32 noundef -1, ptr noundef %6, ptr noundef null)
  store i32 %43, ptr %7, align 4, !tbaa !13
  %44 = load i32, ptr %7, align 4, !tbaa !13
  %45 = icmp ne i32 %44, 0
  br i1 %45, label %46, label %52

46:                                               ; preds = %40
  %47 = load ptr, ptr @stderr, align 8, !tbaa !60
  %48 = load ptr, ptr getelementptr inbounds nuw (%struct.darktable_t, ptr @darktable, i32 0, i32 18), align 8, !tbaa !59
  %49 = call ptr @dt_database_get(ptr noundef %48)
  %50 = call ptr @sqlite3_errmsg(ptr noundef %49)
  %51 = call i32 (ptr, ptr, ...) @fprintf(ptr noundef %47, ptr noundef @.str.45, ptr noundef @.str.43, i32 noundef 1013, ptr noundef @__FUNCTION__._menuitem_update_preset, ptr noundef @.str.183, ptr noundef %50) #11
  br label %52

52:                                               ; preds = %46, %40
  call void @llvm.lifetime.end.p0(i64 4, ptr %7) #11
  br label %53

53:                                               ; preds = %52
  br label %54

54:                                               ; preds = %53
  call void @llvm.lifetime.start.p0(i64 4, ptr %8) #11
  %55 = load ptr, ptr %6, align 8, !tbaa !62
  %56 = load ptr, ptr %4, align 8, !tbaa !83
  %57 = getelementptr inbounds nuw %struct.dt_iop_module_t, ptr %56, i32 0, i32 57
  %58 = getelementptr inbounds [20 x i8], ptr %57, i64 0, i64 0
  %59 = call i32 @sqlite3_bind_text(ptr noundef %55, i32 noundef 1, ptr noundef %58, i32 noundef -1, ptr noundef inttoptr (i64 -1 to ptr))
  store i32 %59, ptr %8, align 4, !tbaa !13
  %60 = load i32, ptr %8, align 4, !tbaa !13
  %61 = icmp ne i32 %60, 0
  br i1 %61, label %62, label %68

62:                                               ; preds = %54
  %63 = load ptr, ptr @stderr, align 8, !tbaa !60
  %64 = load ptr, ptr getelementptr inbounds nuw (%struct.darktable_t, ptr @darktable, i32 0, i32 18), align 8, !tbaa !59
  %65 = call ptr @dt_database_get(ptr noundef %64)
  %66 = call ptr @sqlite3_errmsg(ptr noundef %65)
  %67 = call i32 (ptr, ptr, ...) @fprintf(ptr noundef %63, ptr noundef @.str.48, ptr noundef @.str.43, i32 noundef 1015, ptr noundef @__FUNCTION__._menuitem_update_preset, ptr noundef %66) #11
  br label %68

68:                                               ; preds = %62, %54
  call void @llvm.lifetime.end.p0(i64 4, ptr %8) #11
  call void @llvm.lifetime.start.p0(i64 4, ptr %9) #11
  %69 = load ptr, ptr %6, align 8, !tbaa !62
  %70 = load ptr, ptr %4, align 8, !tbaa !83
  %71 = getelementptr inbounds nuw %struct.dt_iop_module_t, ptr %70, i32 0, i32 1
  %72 = load ptr, ptr %71, align 8, !tbaa !97
  %73 = call i32 (...) %72()
  %74 = call i32 @sqlite3_bind_int(ptr noundef %69, i32 noundef 2, i32 noundef %73)
  store i32 %74, ptr %9, align 4, !tbaa !13
  %75 = load i32, ptr %9, align 4, !tbaa !13
  %76 = icmp ne i32 %75, 0
  br i1 %76, label %77, label %83

77:                                               ; preds = %68
  %78 = load ptr, ptr @stderr, align 8, !tbaa !60
  %79 = load ptr, ptr getelementptr inbounds nuw (%struct.darktable_t, ptr @darktable, i32 0, i32 18), align 8, !tbaa !59
  %80 = call ptr @dt_database_get(ptr noundef %79)
  %81 = call ptr @sqlite3_errmsg(ptr noundef %80)
  %82 = call i32 (ptr, ptr, ...) @fprintf(ptr noundef %78, ptr noundef @.str.48, ptr noundef @.str.43, i32 noundef 1016, ptr noundef @__FUNCTION__._menuitem_update_preset, ptr noundef %81) #11
  br label %83

83:                                               ; preds = %77, %68
  call void @llvm.lifetime.end.p0(i64 4, ptr %9) #11
  call void @llvm.lifetime.start.p0(i64 4, ptr %10) #11
  %84 = load ptr, ptr %6, align 8, !tbaa !62
  %85 = load ptr, ptr %4, align 8, !tbaa !83
  %86 = getelementptr inbounds nuw %struct.dt_iop_module_t, ptr %85, i32 0, i32 80
  %87 = load ptr, ptr %86, align 8, !tbaa !144
  %88 = load ptr, ptr %4, align 8, !tbaa !83
  %89 = getelementptr inbounds nuw %struct.dt_iop_module_t, ptr %88, i32 0, i32 82
  %90 = load i32, ptr %89, align 8, !tbaa !143
  %91 = call i32 @sqlite3_bind_blob(ptr noundef %84, i32 noundef 3, ptr noundef %87, i32 noundef %90, ptr noundef inttoptr (i64 -1 to ptr))
  store i32 %91, ptr %10, align 4, !tbaa !13
  %92 = load i32, ptr %10, align 4, !tbaa !13
  %93 = icmp ne i32 %92, 0
  br i1 %93, label %94, label %100

94:                                               ; preds = %83
  %95 = load ptr, ptr @stderr, align 8, !tbaa !60
  %96 = load ptr, ptr getelementptr inbounds nuw (%struct.darktable_t, ptr @darktable, i32 0, i32 18), align 8, !tbaa !59
  %97 = call ptr @dt_database_get(ptr noundef %96)
  %98 = call ptr @sqlite3_errmsg(ptr noundef %97)
  %99 = call i32 (ptr, ptr, ...) @fprintf(ptr noundef %95, ptr noundef @.str.48, ptr noundef @.str.43, i32 noundef 1018, ptr noundef @__FUNCTION__._menuitem_update_preset, ptr noundef %98) #11
  br label %100

100:                                              ; preds = %94, %83
  call void @llvm.lifetime.end.p0(i64 4, ptr %10) #11
  call void @llvm.lifetime.start.p0(i64 4, ptr %11) #11
  %101 = load ptr, ptr %6, align 8, !tbaa !62
  %102 = load ptr, ptr %4, align 8, !tbaa !83
  %103 = getelementptr inbounds nuw %struct.dt_iop_module_t, ptr %102, i32 0, i32 78
  %104 = load i32, ptr %103, align 16, !tbaa !146
  %105 = call i32 @sqlite3_bind_int(ptr noundef %101, i32 noundef 4, i32 noundef %104)
  store i32 %105, ptr %11, align 4, !tbaa !13
  %106 = load i32, ptr %11, align 4, !tbaa !13
  %107 = icmp ne i32 %106, 0
  br i1 %107, label %108, label %114

108:                                              ; preds = %100
  %109 = load ptr, ptr @stderr, align 8, !tbaa !60
  %110 = load ptr, ptr getelementptr inbounds nuw (%struct.darktable_t, ptr @darktable, i32 0, i32 18), align 8, !tbaa !59
  %111 = call ptr @dt_database_get(ptr noundef %110)
  %112 = call ptr @sqlite3_errmsg(ptr noundef %111)
  %113 = call i32 (ptr, ptr, ...) @fprintf(ptr noundef %109, ptr noundef @.str.48, ptr noundef @.str.43, i32 noundef 1019, ptr noundef @__FUNCTION__._menuitem_update_preset, ptr noundef %112) #11
  br label %114

114:                                              ; preds = %108, %100
  call void @llvm.lifetime.end.p0(i64 4, ptr %11) #11
  call void @llvm.lifetime.start.p0(i64 4, ptr %12) #11
  %115 = load ptr, ptr %6, align 8, !tbaa !62
  %116 = load ptr, ptr %4, align 8, !tbaa !83
  %117 = getelementptr inbounds nuw %struct.dt_iop_module_t, ptr %116, i32 0, i32 86
  %118 = load ptr, ptr %117, align 8, !tbaa !148
  %119 = call i32 @sqlite3_bind_blob(ptr noundef %115, i32 noundef 5, ptr noundef %118, i32 noundef 420, ptr noundef inttoptr (i64 -1 to ptr))
  store i32 %119, ptr %12, align 4, !tbaa !13
  %120 = load i32, ptr %12, align 4, !tbaa !13
  %121 = icmp ne i32 %120, 0
  br i1 %121, label %122, label %128

122:                                              ; preds = %114
  %123 = load ptr, ptr @stderr, align 8, !tbaa !60
  %124 = load ptr, ptr getelementptr inbounds nuw (%struct.darktable_t, ptr @darktable, i32 0, i32 18), align 8, !tbaa !59
  %125 = call ptr @dt_database_get(ptr noundef %124)
  %126 = call ptr @sqlite3_errmsg(ptr noundef %125)
  %127 = call i32 (ptr, ptr, ...) @fprintf(ptr noundef %123, ptr noundef @.str.48, ptr noundef @.str.43, i32 noundef 1022, ptr noundef @__FUNCTION__._menuitem_update_preset, ptr noundef %126) #11
  br label %128

128:                                              ; preds = %122, %114
  call void @llvm.lifetime.end.p0(i64 4, ptr %12) #11
  call void @llvm.lifetime.start.p0(i64 4, ptr %13) #11
  %129 = load ptr, ptr %6, align 8, !tbaa !62
  %130 = call i32 @dt_develop_blend_version()
  %131 = call i32 @sqlite3_bind_int(ptr noundef %129, i32 noundef 6, i32 noundef %130)
  store i32 %131, ptr %13, align 4, !tbaa !13
  %132 = load i32, ptr %13, align 4, !tbaa !13
  %133 = icmp ne i32 %132, 0
  br i1 %133, label %134, label %140

134:                                              ; preds = %128
  %135 = load ptr, ptr @stderr, align 8, !tbaa !60
  %136 = load ptr, ptr getelementptr inbounds nuw (%struct.darktable_t, ptr @darktable, i32 0, i32 18), align 8, !tbaa !59
  %137 = call ptr @dt_database_get(ptr noundef %136)
  %138 = call ptr @sqlite3_errmsg(ptr noundef %137)
  %139 = call i32 (ptr, ptr, ...) @fprintf(ptr noundef %135, ptr noundef @.str.48, ptr noundef @.str.43, i32 noundef 1023, ptr noundef @__FUNCTION__._menuitem_update_preset, ptr noundef %138) #11
  br label %140

140:                                              ; preds = %134, %128
  call void @llvm.lifetime.end.p0(i64 4, ptr %13) #11
  call void @llvm.lifetime.start.p0(i64 4, ptr %14) #11
  %141 = load ptr, ptr %6, align 8, !tbaa !62
  %142 = load ptr, ptr %5, align 8, !tbaa !11
  %143 = call i32 @sqlite3_bind_text(ptr noundef %141, i32 noundef 7, ptr noundef %142, i32 noundef -1, ptr noundef inttoptr (i64 -1 to ptr))
  store i32 %143, ptr %14, align 4, !tbaa !13
  %144 = load i32, ptr %14, align 4, !tbaa !13
  %145 = icmp ne i32 %144, 0
  br i1 %145, label %146, label %152

146:                                              ; preds = %140
  %147 = load ptr, ptr @stderr, align 8, !tbaa !60
  %148 = load ptr, ptr getelementptr inbounds nuw (%struct.darktable_t, ptr @darktable, i32 0, i32 18), align 8, !tbaa !59
  %149 = call ptr @dt_database_get(ptr noundef %148)
  %150 = call ptr @sqlite3_errmsg(ptr noundef %149)
  %151 = call i32 (ptr, ptr, ...) @fprintf(ptr noundef %147, ptr noundef @.str.48, ptr noundef @.str.43, i32 noundef 1024, ptr noundef @__FUNCTION__._menuitem_update_preset, ptr noundef %150) #11
  br label %152

152:                                              ; preds = %146, %140
  call void @llvm.lifetime.end.p0(i64 4, ptr %14) #11
  %153 = load ptr, ptr %6, align 8, !tbaa !62
  %154 = call i32 @sqlite3_step(ptr noundef %153)
  %155 = load ptr, ptr %6, align 8, !tbaa !62
  %156 = call i32 @sqlite3_finalize(ptr noundef %155)
  call void @llvm.lifetime.end.p0(i64 8, ptr %6) #11
  br label %157

157:                                              ; preds = %152, %20
  call void @llvm.lifetime.end.p0(i64 8, ptr %5) #11
  ret void
}