; Function Attrs: nounwind uwtable
define internal void @_menuitem_update_preset(ptr noundef %0, ptr noundef %1) #0 {
  %3 = alloca ptr, align 8
  %4 = tail call ptr @g_type_check_instance_cast(ptr noundef %0, i64 noundef 80) #16
  %5 = tail call ptr @g_object_get_data(ptr noundef %4, ptr noundef nonnull @.str.94) #16
  %6 = tail call i32 @dt_conf_get_bool(ptr noundef nonnull @.str.180) #16
  %.not = icmp eq i32 %6, 0
  br i1 %.not, label %11, label %7

7:                                                ; preds = %2
  %8 = tail call ptr @dcgettext(ptr noundef null, ptr noundef nonnull @.str.181, i32 noundef 5) #16
  %9 = tail call ptr @dcgettext(ptr noundef null, ptr noundef nonnull @.str.182, i32 noundef 5) #16
  %10 = tail call i32 (ptr, ptr, ...) @dt_gui_show_yes_no_dialog(ptr noundef %8, ptr noundef %9, ptr noundef %5) #16
  %.not16 = icmp eq i32 %10, 0
  br i1 %.not16, label %106, label %11

11:                                               ; preds = %7, %2
  call void @llvm.lifetime.start.p0(i64 8, ptr nonnull %3) #16
  %12 = load i32, ptr getelementptr inbounds nuw (i8, ptr @darktable, i64 8), align 8, !tbaa !14
  %13 = and i32 %12, 256
  %.not17 = icmp eq i32 %13, 0
  br i1 %.not17, label %15, label %14

14:                                               ; preds = %11
  tail call void (ptr, ...) @dt_print_ext(ptr noundef nonnull @.str.46, ptr noundef nonnull @.str.43, i32 noundef 1013, ptr noundef nonnull @__FUNCTION__._menuitem_update_preset, ptr noundef nonnull @.str.183) #16
  br label %15

15:                                               ; preds = %14, %11
  %16 = load ptr, ptr getelementptr inbounds nuw (i8, ptr @darktable, i64 136), align 8, !tbaa !53
  %17 = tail call ptr @dt_database_get(ptr noundef %16) #16
  %18 = call i32 @sqlite3_prepare_v2(ptr noundef %17, ptr noundef nonnull @.str.183, i32 noundef -1, ptr noundef nonnull %3, ptr noundef null) #16
  %.not18 = icmp eq i32 %18, 0
  br i1 %.not18, label %25, label %19

19:                                               ; preds = %15
  %20 = load ptr, ptr @stderr, align 8, !tbaa !54
  %21 = load ptr, ptr getelementptr inbounds nuw (i8, ptr @darktable, i64 136), align 8, !tbaa !53
  %22 = call ptr @dt_database_get(ptr noundef %21) #16
  %23 = call ptr @sqlite3_errmsg(ptr noundef %22) #16
  %24 = call i32 (ptr, ptr, ...) @fprintf(ptr noundef %20, ptr noundef nonnull @.str.45, ptr noundef nonnull @.str.43, i32 noundef 1013, ptr noundef nonnull @__FUNCTION__._menuitem_update_preset, ptr noundef nonnull @.str.183, ptr noundef %23) #17
  br label %25

25:                                               ; preds = %19, %15
  %26 = load ptr, ptr %3, align 8, !tbaa !56
  %27 = getelementptr inbounds nuw i8, ptr %1, i64 456
  %28 = call i32 @sqlite3_bind_text(ptr noundef %26, i32 noundef 1, ptr noundef nonnull %27, i32 noundef -1, ptr noundef nonnull inttoptr (i64 -1 to ptr)) #16
  %.not19 = icmp eq i32 %28, 0
  br i1 %.not19, label %35, label %29

29:                                               ; preds = %25
  %30 = load ptr, ptr @stderr, align 8, !tbaa !54
  %31 = load ptr, ptr getelementptr inbounds nuw (i8, ptr @darktable, i64 136), align 8, !tbaa !53
  %32 = call ptr @dt_database_get(ptr noundef %31) #16
  %33 = call ptr @sqlite3_errmsg(ptr noundef %32) #16
  %34 = call i32 (ptr, ptr, ...) @fprintf(ptr noundef %30, ptr noundef nonnull @.str.48, ptr noundef nonnull @.str.43, i32 noundef 1015, ptr noundef nonnull @__FUNCTION__._menuitem_update_preset, ptr noundef %33) #17
  br label %35

35:                                               ; preds = %29, %25
  %36 = load ptr, ptr %3, align 8, !tbaa !56
  %37 = getelementptr inbounds nuw i8, ptr %1, i64 8
  %38 = load ptr, ptr %37, align 8, !tbaa !72
  %39 = call i32 (...) %38() #16
  %40 = call i32 @sqlite3_bind_int(ptr noundef %36, i32 noundef 2, i32 noundef %39) #16
  %.not20 = icmp eq i32 %40, 0
  br i1 %.not20, label %47, label %41

41:                                               ; preds = %35
  %42 = load ptr, ptr @stderr, align 8, !tbaa !54
  %43 = load ptr, ptr getelementptr inbounds nuw (i8, ptr @darktable, i64 136), align 8, !tbaa !53
  %44 = call ptr @dt_database_get(ptr noundef %43) #16
  %45 = call ptr @sqlite3_errmsg(ptr noundef %44) #16
  %46 = call i32 (ptr, ptr, ...) @fprintf(ptr noundef %42, ptr noundef nonnull @.str.48, ptr noundef nonnull @.str.43, i32 noundef 1016, ptr noundef nonnull @__FUNCTION__._menuitem_update_preset, ptr noundef %45) #17
  br label %47

47:                                               ; preds = %41, %35
  %48 = load ptr, ptr %3, align 8, !tbaa !56
  %49 = getelementptr inbounds nuw i8, ptr %1, i64 680
  %50 = load ptr, ptr %49, align 8, !tbaa !119
  %51 = getelementptr inbounds nuw i8, ptr %1, i64 696
  %52 = load i32, ptr %51, align 8, !tbaa !118
  %53 = call i32 @sqlite3_bind_blob(ptr noundef %48, i32 noundef 3, ptr noundef %50, i32 noundef %52, ptr noundef nonnull inttoptr (i64 -1 to ptr)) #16
  %.not21 = icmp eq i32 %53, 0
  br i1 %.not21, label %60, label %54

54:                                               ; preds = %47
  %55 = load ptr, ptr @stderr, align 8, !tbaa !54
  %56 = load ptr, ptr getelementptr inbounds nuw (i8, ptr @darktable, i64 136), align 8, !tbaa !53
  %57 = call ptr @dt_database_get(ptr noundef %56) #16
  %58 = call ptr @sqlite3_errmsg(ptr noundef %57) #16
  %59 = call i32 (ptr, ptr, ...) @fprintf(ptr noundef %55, ptr noundef nonnull @.str.48, ptr noundef nonnull @.str.43, i32 noundef 1018, ptr noundef nonnull @__FUNCTION__._menuitem_update_preset, ptr noundef %58) #17
  br label %60

60:                                               ; preds = %54, %47
  %61 = load ptr, ptr %3, align 8, !tbaa !56
  %62 = getelementptr inbounds nuw i8, ptr %1, i64 672
  %63 = load i32, ptr %62, align 16, !tbaa !121
  %64 = call i32 @sqlite3_bind_int(ptr noundef %61, i32 noundef 4, i32 noundef %63) #16
  %.not22 = icmp eq i32 %64, 0
  br i1 %.not22, label %71, label %65

65:                                               ; preds = %60
  %66 = load ptr, ptr @stderr, align 8, !tbaa !54
  %67 = load ptr, ptr getelementptr inbounds nuw (i8, ptr @darktable, i64 136), align 8, !tbaa !53
  %68 = call ptr @dt_database_get(ptr noundef %67) #16
  %69 = call ptr @sqlite3_errmsg(ptr noundef %68) #16
  %70 = call i32 (ptr, ptr, ...) @fprintf(ptr noundef %66, ptr noundef nonnull @.str.48, ptr noundef nonnull @.str.43, i32 noundef 1019, ptr noundef nonnull @__FUNCTION__._menuitem_update_preset, ptr noundef %69) #17
  br label %71

71:                                               ; preds = %65, %60
  %72 = load ptr, ptr %3, align 8, !tbaa !56
  %73 = getelementptr inbounds nuw i8, ptr %1, i64 760
  %74 = load ptr, ptr %73, align 8, !tbaa !123
  %75 = call i32 @sqlite3_bind_blob(ptr noundef %72, i32 noundef 5, ptr noundef %74, i32 noundef 420, ptr noundef nonnull inttoptr (i64 -1 to ptr)) #16
  %.not23 = icmp eq i32 %75, 0
  br i1 %.not23, label %82, label %76

76:                                               ; preds = %71
  %77 = load ptr, ptr @stderr, align 8, !tbaa !54
  %78 = load ptr, ptr getelementptr inbounds nuw (i8, ptr @darktable, i64 136), align 8, !tbaa !53
  %79 = call ptr @dt_database_get(ptr noundef %78) #16
  %80 = call ptr @sqlite3_errmsg(ptr noundef %79) #16
  %81 = call i32 (ptr, ptr, ...) @fprintf(ptr noundef %77, ptr noundef nonnull @.str.48, ptr noundef nonnull @.str.43, i32 noundef 1022, ptr noundef nonnull @__FUNCTION__._menuitem_update_preset, ptr noundef %80) #17
  br label %82

82:                                               ; preds = %76, %71
  %83 = load ptr, ptr %3, align 8, !tbaa !56
  %84 = call i32 @dt_develop_blend_version() #16
  %85 = call i32 @sqlite3_bind_int(ptr noundef %83, i32 noundef 6, i32 noundef %84) #16
  %.not24 = icmp eq i32 %85, 0
  br i1 %.not24, label %92, label %86

86:                                               ; preds = %82
  %87 = load ptr, ptr @stderr, align 8, !tbaa !54
  %88 = load ptr, ptr getelementptr inbounds nuw (i8, ptr @darktable, i64 136), align 8, !tbaa !53
  %89 = call ptr @dt_database_get(ptr noundef %88) #16
  %90 = call ptr @sqlite3_errmsg(ptr noundef %89) #16
  %91 = call i32 (ptr, ptr, ...) @fprintf(ptr noundef %87, ptr noundef nonnull @.str.48, ptr noundef nonnull @.str.43, i32 noundef 1023, ptr noundef nonnull @__FUNCTION__._menuitem_update_preset, ptr noundef %90) #17
  br label %92

92:                                               ; preds = %86, %82
  %93 = load ptr, ptr %3, align 8, !tbaa !56
  %94 = call i32 @sqlite3_bind_text(ptr noundef %93, i32 noundef 7, ptr noundef %5, i32 noundef -1, ptr noundef nonnull inttoptr (i64 -1 to ptr)) #16
  %.not25 = icmp eq i32 %94, 0
  br i1 %.not25, label %101, label %95

95:                                               ; preds = %92
  %96 = load ptr, ptr @stderr, align 8, !tbaa !54
  %97 = load ptr, ptr getelementptr inbounds nuw (i8, ptr @darktable, i64 136), align 8, !tbaa !53
  %98 = call ptr @dt_database_get(ptr noundef %97) #16
  %99 = call ptr @sqlite3_errmsg(ptr noundef %98) #16
  %100 = call i32 (ptr, ptr, ...) @fprintf(ptr noundef %96, ptr noundef nonnull @.str.48, ptr noundef nonnull @.str.43, i32 noundef 1024, ptr noundef nonnull @__FUNCTION__._menuitem_update_preset, ptr noundef %99) #17
  br label %101

101:                                              ; preds = %95, %92
  %102 = load ptr, ptr %3, align 8, !tbaa !56
  %103 = call i32 @sqlite3_step(ptr noundef %102) #16
  %104 = load ptr, ptr %3, align 8, !tbaa !56
  %105 = call i32 @sqlite3_finalize(ptr noundef %104) #16
  call void @llvm.lifetime.end.p0(i64 8, ptr nonnull %3) #16
  br label %106

106:                                              ; preds = %101, %7
  ret void
}